; Function Attrs: nounwind sspstrong uwtable
define hidden i64 @rb_convert_type_with_id(i64 noundef %0, i32 noundef %1, ptr noundef %2, i64 noundef %3) local_unnamed_addr #2 {
  %5 = icmp eq i64 %0, 0
  %6 = and i64 %0, 7
  %7 = icmp ne i64 %6, 0
  %8 = or i1 %5, %7
  br i1 %8, label %14, label %9

9:                                                ; preds = %4
  %10 = inttoptr i64 %0 to ptr
  %11 = load i64, ptr %10, align 8, !tbaa !24
  %12 = trunc i64 %11 to i32
  %13 = and i32 %12, 31
  br label %rb_type.exit

14:                                               ; preds = %4
  %15 = tail call i64 @llvm.fshl.i64(i64 %0, i64 %0, i64 62)
  %16 = icmp ult i64 %15, 10
  br i1 %16, label %switch.hole_check, label %17

17:                                               ; preds = %switch.hole_check, %14
  %18 = and i64 %0, 1
  %.not.i = icmp eq i64 %18, 0
  br i1 %.not.i, label %19, label %rb_type.exit

19:                                               ; preds = %17
  %20 = and i64 %0, 254
  %21 = icmp eq i64 %20, 12
  %spec.select.i = select i1 %21, i32 20, i32 4
  br label %rb_type.exit

switch.hole_check:                                ; preds = %14
  %switch.maskindex = trunc nuw i64 %15 to i16
  %switch.shifted = lshr i16 547, %switch.maskindex
  %switch.lobit = trunc i16 %switch.shifted to i1
  br i1 %switch.lobit, label %switch.lookup, label %17

switch.lookup:                                    ; preds = %switch.hole_check
  %switch.gep = getelementptr inbounds nuw [10 x i32], ptr @switch.table.rb_check_convert_type_with_id.7, i64 0, i64 %15
  %switch.load = load i32, ptr %switch.gep, align 4
  br label %rb_type.exit

rb_type.exit:                                     ; preds = %switch.lookup, %9, %17, %19
  %.0.i = phi i32 [ %13, %9 ], [ 21, %17 ], [ %spec.select.i, %19 ], [ %switch.load, %switch.lookup ]
  %22 = icmp eq i32 %.0.i, %1
  br i1 %22, label %49, label %23

23:                                               ; preds = %rb_type.exit
  %24 = tail call fastcc i64 @convert_type_with_id(i64 noundef %0, ptr noundef %2, i64 noundef %3, i32 noundef 1, i32 noundef -1)
  %25 = icmp eq i64 %24, 0
  %26 = and i64 %24, 7
  %27 = icmp ne i64 %26, 0
  %28 = or i1 %25, %27
  br i1 %28, label %34, label %29

29:                                               ; preds = %23
  %30 = inttoptr i64 %24 to ptr
  %31 = load i64, ptr %30, align 8, !tbaa !24
  %32 = trunc i64 %31 to i32
  %33 = and i32 %32, 31
  br label %rb_type.exit17

34:                                               ; preds = %23
  %35 = tail call i64 @llvm.fshl.i64(i64 %24, i64 %24, i64 62)
  %36 = icmp ult i64 %35, 10
  br i1 %36, label %switch.hole_check19, label %37

37:                                               ; preds = %switch.hole_check19, %34
  %38 = and i64 %24, 1
  %.not.i15 = icmp eq i64 %38, 0
  br i1 %.not.i15, label %39, label %rb_type.exit17

39:                                               ; preds = %37
  %40 = and i64 %24, 254
  %41 = icmp eq i64 %40, 12
  %spec.select.i16 = select i1 %41, i32 20, i32 4
  br label %rb_type.exit17

switch.hole_check19:                              ; preds = %34
  %switch.maskindex21 = trunc nuw i64 %35 to i16
  %switch.shifted22 = lshr i16 547, %switch.maskindex21
  %switch.lobit23 = trunc i16 %switch.shifted22 to i1
  br i1 %switch.lobit23, label %switch.lookup20, label %37

switch.lookup20:                                  ; preds = %switch.hole_check19
  %switch.gep24 = getelementptr inbounds nuw [10 x i32], ptr @switch.table.rb_check_convert_type_with_id.7, i64 0, i64 %35
  %switch.load25 = load i32, ptr %switch.gep24, align 4
  br label %rb_type.exit17

rb_type.exit17:                                   ; preds = %switch.lookup20, %29, %37, %39
  %.0.i14 = phi i32 [ %33, %29 ], [ 21, %37 ], [ %spec.select.i16, %39 ], [ %switch.load25, %switch.lookup20 ]
  %.not = icmp eq i32 %.0.i14, %1
  br i1 %.not, label %49, label %42

42:                                               ; preds = %rb_type.exit17
  %43 = tail call i64 @rb_id2str(i64 noundef %3) #23
  %44 = inttoptr i64 %43 to ptr
  %45 = load i64, ptr %44, align 8, !tbaa !24, !noalias !58
  %46 = and i64 %45, 8192
  %.not.i.i = icmp eq i64 %46, 0
  %47 = getelementptr inbounds nuw i8, ptr %44, i64 24
  br i1 %.not.i.i, label %RSTRING_PTR.exit, label %48

48:                                               ; preds = %42
  %.sroa.2.0.copyload.i = load ptr, ptr %47, align 8
  br label %RSTRING_PTR.exit

RSTRING_PTR.exit:                                 ; preds = %42, %48
  %.sroa.2.0.i = phi ptr [ %.sroa.2.0.copyload.i, %48 ], [ %47, %42 ]
  tail call fastcc void @conversion_mismatch(i64 noundef %0, ptr noundef %2, ptr noundef %.sroa.2.0.i, i64 noundef %24) #27
  unreachable

49:                                               ; preds = %rb_type.exit17, %rb_type.exit
  %.0 = phi i64 [ %0, %rb_type.exit ], [ %24, %rb_type.exit17 ]
  ret i64 %.0
}